; Function Attrs: mustprogress uwtable
define void @_ZN2cvmlERKNS_3MatERKNS_7MatExprE(ptr dead_on_unwind noalias writable sret(%"class.cv::MatExpr") align 8 %0, ptr noundef nonnull align 8 dereferenceable(96) %1, ptr noundef nonnull align 8 dereferenceable(352) %2) local_unnamed_addr #8 personality ptr @__gxx_personality_v0 {
  %4 = alloca %"class.std::__cxx11::basic_string", align 8
  %5 = alloca %"class.std::allocator", align 1
  %6 = alloca %"class.cv::MatExpr", align 8
  call void @llvm.lifetime.start.p0(i64 32, ptr nonnull %4)
  call void @llvm.lifetime.start.p0(i64 1, ptr nonnull %5)
  %7 = tail call noundef zeroext i1 @_ZNK2cv3Mat5emptyEv(ptr noundef nonnull align 8 dereferenceable(96) %1)
  br i1 %7, label %8, label %_ZN2cvL18checkOperandsExistERKNS_3MatE.exit

8:                                                ; preds = %3
  call void @_ZNSaIcEC1Ev(ptr noundef nonnull align 1 dereferenceable(1) %5) #21
  invoke void @_ZNSt7__cxx1112basic_stringIcSt11char_traitsIcESaIcEEC1EPKcRKS3_(ptr noundef nonnull align 8 dereferenceable(32) %4, ptr noundef nonnull @.str.61, ptr noundef nonnull align 1 dereferenceable(1) %5)
          to label %9 unwind label %11

9:                                                ; preds = %8
  invoke void @_ZN2cv5errorEiRKNSt7__cxx1112basic_stringIcSt11char_traitsIcESaIcEEEPKcS9_i(i32 noundef -5, ptr noundef nonnull align 8 dereferenceable(32) %4, ptr noundef nonnull @__func__._ZN2cvL18checkOperandsExistERKNS_3MatES2_, ptr noundef nonnull @.str.9, i32 noundef 24) #22
          to label %10 unwind label %13

10:                                               ; preds = %9
  unreachable

11:                                               ; preds = %8
  %12 = landingpad { ptr, i32 }
          cleanup
  br label %15

13:                                               ; preds = %9
  %14 = landingpad { ptr, i32 }
          cleanup
  call void @_ZNSt7__cxx1112basic_stringIcSt11char_traitsIcESaIcEED1Ev(ptr noundef nonnull align 8 dereferenceable(32) %4) #21
  br label %15

common.resume:                                    ; preds = %34, %15
  %common.resume.op = phi { ptr, i32 } [ %.pn.i, %15 ], [ %.pn, %34 ]
  resume { ptr, i32 } %common.resume.op

15:                                               ; preds = %13, %11
  %.pn.i = phi { ptr, i32 } [ %14, %13 ], [ %12, %11 ]
  call void @_ZNSaIcED1Ev(ptr noundef nonnull align 1 dereferenceable(1) %5) #21
  br label %common.resume

_ZN2cvL18checkOperandsExistERKNS_3MatE.exit:      ; preds = %3
  call void @llvm.lifetime.end.p0(i64 32, ptr nonnull %4)
  call void @llvm.lifetime.end.p0(i64 1, ptr nonnull %5)
  store ptr null, ptr %0, align 8
  %16 = getelementptr inbounds i8, ptr %0, i64 8
  store i32 0, ptr %16, align 8
  %17 = getelementptr inbounds i8, ptr %0, i64 16
  tail call void @_ZN2cv3MatC1Ev(ptr noundef nonnull align 8 dereferenceable(96) %17) #21
  %18 = getelementptr inbounds i8, ptr %0, i64 112
  tail call void @_ZN2cv3MatC1Ev(ptr noundef nonnull align 8 dereferenceable(96) %18) #21
  %19 = getelementptr inbounds i8, ptr %0, i64 208
  tail call void @_ZN2cv3MatC1Ev(ptr noundef nonnull align 8 dereferenceable(96) %19) #21
  %20 = getelementptr inbounds i8, ptr %0, i64 304
  tail call void @llvm.memset.p0.i64(ptr noundef nonnull align 8 dereferenceable(48) %20, i8 0, i64 48, i1 false)
  %21 = load ptr, ptr %2, align 8
  invoke void @_ZN2cv7MatExprC1ERKNS_3MatE(ptr noundef nonnull align 8 dereferenceable(352) %6, ptr noundef nonnull align 8 dereferenceable(96) %1)
          to label %22 unwind label %30

22:                                               ; preds = %_ZN2cvL18checkOperandsExistERKNS_3MatE.exit
  %23 = load ptr, ptr %21, align 8
  %24 = getelementptr inbounds i8, ptr %23, i64 184
  %25 = load ptr, ptr %24, align 8
  invoke void %25(ptr noundef nonnull align 8 dereferenceable(8) %21, ptr noundef nonnull align 8 dereferenceable(352) %6, ptr noundef nonnull align 8 dereferenceable(352) %2, ptr noundef nonnull align 8 dereferenceable(352) %0)
          to label %26 unwind label %32

26:                                               ; preds = %22
  %27 = getelementptr inbounds i8, ptr %6, i64 208
  call void @_ZN2cv3MatD1Ev(ptr noundef nonnull align 8 dereferenceable(96) %27) #21
  %28 = getelementptr inbounds i8, ptr %6, i64 112
  call void @_ZN2cv3MatD1Ev(ptr noundef nonnull align 8 dereferenceable(96) %28) #21
  %29 = getelementptr inbounds i8, ptr %6, i64 16
  call void @_ZN2cv3MatD1Ev(ptr noundef nonnull align 8 dereferenceable(96) %29) #21
  ret void

30:                                               ; preds = %_ZN2cvL18checkOperandsExistERKNS_3MatE.exit
  %31 = landingpad { ptr, i32 }
          cleanup
  br label %34

32:                                               ; preds = %22
  %33 = landingpad { ptr, i32 }
          cleanup
  call void @_ZN2cv7MatExprD2Ev(ptr noundef nonnull align 8 dereferenceable(352) %6) #21
  br label %34

34:                                               ; preds = %32, %30
  %.pn = phi { ptr, i32 } [ %33, %32 ], [ %31, %30 ]
  call void @_ZN2cv7MatExprD2Ev(ptr noundef nonnull align 8 dereferenceable(352) %0) #21
  br label %common.resume
}